; Function Attrs: nounwind uwtable
define ptr @l_Lean_PrettyPrinter_Delaborator_SubExpr_withMDataExpr___rarg(ptr noundef %0, ptr readnone captures(none) %1, ptr noundef %2, ptr noundef %3, ptr noundef %4, ptr noundef %5) #0 {
  %7 = getelementptr inbounds nuw i8, ptr %2, i64 16
  %8 = load ptr, ptr %7, align 8, !tbaa !5
  %9 = ptrtoint ptr %8 to i64
  %10 = and i64 %9, 1
  %.not = icmp eq i64 %10, 0
  br i1 %.not, label %11, label %lean_inc.exit17

11:                                               ; preds = %6
  %.val.i = load i32, ptr %8, align 4, !tbaa !9
  %12 = icmp sgt i32 %.val.i, 0
  br i1 %12, label %13, label %15, !prof !12

13:                                               ; preds = %11
  %14 = add nuw i32 %.val.i, 1
  store i32 %14, ptr %8, align 4, !tbaa !9
  br label %lean_inc.exit17

15:                                               ; preds = %11
  %.not.i = icmp eq i32 %.val.i, 0
  br i1 %.not.i, label %lean_inc.exit17, label %16

16:                                               ; preds = %15
  tail call void @lean_inc_ref_cold(ptr noundef nonnull %8) #5
  br label %lean_inc.exit17

lean_inc.exit17:                                  ; preds = %16, %15, %13, %6
  %17 = ptrtoint ptr %2 to i64
  %18 = and i64 %17, 1
  %.not22 = icmp eq i64 %18, 0
  br i1 %.not22, label %19, label %lean_inc.exit

19:                                               ; preds = %lean_inc.exit17
  %.val.i18 = load i32, ptr %2, align 4, !tbaa !9
  %20 = icmp sgt i32 %.val.i18, 0
  br i1 %20, label %21, label %23, !prof !12

21:                                               ; preds = %19
  %22 = add nuw i32 %.val.i18, 1
  store i32 %22, ptr %2, align 4, !tbaa !9
  br label %lean_inc.exit

23:                                               ; preds = %19
  %.not.i19 = icmp eq i32 %.val.i18, 0
  br i1 %.not.i19, label %lean_inc.exit, label %24

24:                                               ; preds = %23
  tail call void @lean_inc_ref_cold(ptr noundef nonnull %2) #5
  br label %lean_inc.exit

lean_inc.exit:                                    ; preds = %24, %23, %21, %lean_inc.exit17
  %25 = load ptr, ptr %7, align 8, !tbaa !5
  %26 = ptrtoint ptr %25 to i64
  %27 = and i64 %26, 1
  %.not.i21 = icmp eq i64 %27, 0
  br i1 %.not.i21, label %28, label %lean_inc.exit.i

28:                                               ; preds = %lean_inc.exit
  %.val.i.i = load i32, ptr %25, align 4, !tbaa !9
  %29 = icmp sgt i32 %.val.i.i, 0
  br i1 %29, label %30, label %32, !prof !12

30:                                               ; preds = %28
  %31 = add nuw i32 %.val.i.i, 1
  store i32 %31, ptr %25, align 4, !tbaa !9
  br label %lean_inc.exit.i

32:                                               ; preds = %28
  %.not.i.i = icmp eq i32 %.val.i.i, 0
  br i1 %.not.i.i, label %lean_inc.exit.i, label %33

33:                                               ; preds = %32
  tail call void @lean_inc_ref_cold(ptr noundef nonnull %25) #5
  br label %lean_inc.exit.i

lean_inc.exit.i:                                  ; preds = %33, %32, %30, %lean_inc.exit
  tail call void @lean_inc_heartbeat() #5
  %34 = tail call noalias ptr @mi_malloc_small(i64 noundef 32) #5
  %35 = icmp eq ptr %34, null
  br i1 %35, label %36, label %l_Lean_PrettyPrinter_Delaborator_SubExpr_getExpr___rarg.exit

36:                                               ; preds = %lean_inc.exit.i
  tail call void @lean_internal_panic_out_of_memory() #6
  unreachable

l_Lean_PrettyPrinter_Delaborator_SubExpr_getExpr___rarg.exit: ; preds = %lean_inc.exit.i
  %37 = getelementptr inbounds nuw i8, ptr %34, i64 4
  store i32 1, ptr %34, align 4, !tbaa !9
  store i32 -184549344, ptr %37, align 4
  %38 = getelementptr inbounds nuw i8, ptr %34, i64 8
  store ptr @l_Lean_PrettyPrinter_Delaborator_SubExpr_getExpr___rarg___lambda__1, ptr %38, align 8, !tbaa !5
  %39 = getelementptr inbounds nuw i8, ptr %34, i64 16
  store i16 2, ptr %39, align 8, !tbaa !17
  %40 = getelementptr inbounds nuw i8, ptr %34, i64 18
  store i16 1, ptr %40, align 2, !tbaa !17
  %41 = getelementptr inbounds nuw i8, ptr %34, i64 24
  store ptr %2, ptr %41, align 8, !tbaa !5
  %42 = tail call ptr @lean_apply_4(ptr noundef %25, ptr noundef nonnull inttoptr (i64 1 to ptr), ptr noundef nonnull inttoptr (i64 1 to ptr), ptr noundef %3, ptr noundef nonnull %34) #5
  tail call void @lean_inc_heartbeat() #5
  %43 = tail call noalias ptr @mi_malloc_small(i64 noundef 56) #5
  %44 = icmp eq ptr %43, null
  br i1 %44, label %45, label %lean_alloc_closure.exit

45:                                               ; preds = %l_Lean_PrettyPrinter_Delaborator_SubExpr_getExpr___rarg.exit
  tail call void @lean_internal_panic_out_of_memory() #6
  unreachable

lean_alloc_closure.exit:                          ; preds = %l_Lean_PrettyPrinter_Delaborator_SubExpr_getExpr___rarg.exit
  %46 = getelementptr inbounds nuw i8, ptr %43, i64 4
  store i32 1, ptr %43, align 4, !tbaa !9
  store i32 -184549320, ptr %46, align 4
  %47 = getelementptr inbounds nuw i8, ptr %43, i64 8
  store ptr @l_Lean_PrettyPrinter_Delaborator_SubExpr_withMDataExpr___rarg___lambda__2, ptr %47, align 8, !tbaa !5
  %48 = getelementptr inbounds nuw i8, ptr %43, i64 16
  store i16 5, ptr %48, align 8, !tbaa !17
  %49 = getelementptr inbounds nuw i8, ptr %43, i64 18
  store i16 4, ptr %49, align 2, !tbaa !17
  %50 = getelementptr inbounds nuw i8, ptr %43, i64 24
  store ptr %0, ptr %50, align 8, !tbaa !5
  %51 = getelementptr inbounds nuw i8, ptr %43, i64 32
  store ptr %2, ptr %51, align 8, !tbaa !5
  %52 = getelementptr inbounds nuw i8, ptr %43, i64 40
  store ptr %4, ptr %52, align 8, !tbaa !5
  %53 = getelementptr inbounds nuw i8, ptr %43, i64 48
  store ptr %5, ptr %53, align 8, !tbaa !5
  %54 = tail call ptr @lean_apply_4(ptr noundef %8, ptr noundef nonnull inttoptr (i64 1 to ptr), ptr noundef nonnull inttoptr (i64 1 to ptr), ptr noundef %42, ptr noundef nonnull %43) #5
  ret ptr %54
}